target datalayout = "e-m:e-p270:32:32-p271:32:32-p272:64:64-i64:64-i128:128-f80:128-n8:16:32:64-S128"
target triple = "x86_64-pc-linux-gnu"

%struct.xlist = type { i32, i32, ptr, ptr, ptr, ptr, %union.pthread_rwlock_t, ptr, ptr, [0 x %struct.listNode] }
%union.pthread_rwlock_t = type { %struct.__pthread_rwlock_arch_t }
%struct.__pthread_rwlock_arch_t = type { i32, i32, i32, i32, i32, i32, i32, i32, i8, [7 x i8], i64, i32 }
%struct.listNode = type { ptr, ptr }

@.str.2 = private unnamed_addr constant [32 x i8] c"%s: pthread_rwlock_wrlock(): %m\00", align 1
@.str.3 = private unnamed_addr constant [32 x i8] c"%s: pthread_rwlock_unlock(): %m\00", align 1
@.str.5 = private unnamed_addr constant [32 x i8] c"%s: pthread_rwlock_rdlock(): %m\00", align 1
@__func__.list_for_each_max = private unnamed_addr constant [18 x i8] c"list_for_each_max\00", align 1

; Function Attrs: nounwind uwtable
define dso_local i32 @list_for_each_max(ptr noundef %0, ptr noundef %1, ptr noundef %2, ptr noundef %3, i32 noundef %4, i32 noundef %5) #0 {
  %7 = alloca ptr, align 8
  %8 = alloca ptr, align 8
  %9 = alloca ptr, align 8
  %10 = alloca ptr, align 8
  %11 = alloca i32, align 4
  %12 = alloca i32, align 4
  %13 = alloca ptr, align 8
  %14 = alloca i32, align 4
  %15 = alloca i8, align 1
  %16 = alloca i32, align 4
  %17 = alloca i32, align 4
  %18 = alloca i32, align 4
  store ptr %0, ptr %7, align 8
  store ptr %1, ptr %8, align 8
  store ptr %2, ptr %9, align 8
  store ptr %3, ptr %10, align 8
  store i32 %4, ptr %11, align 4
  store i32 %5, ptr %12, align 4
  call void @llvm.lifetime.start.p0(i64 8, ptr %13) #6
  call void @llvm.lifetime.start.p0(i64 4, ptr %14) #6
  store i32 0, ptr %14, align 4
  call void @llvm.lifetime.start.p0(i64 1, ptr %15) #6
  store i8 0, ptr %15, align 1
  %19 = load i32, ptr %12, align 4
  %20 = icmp ne i32 %19, 0
  br i1 %20, label %21, label %34

21:                                               ; preds = %6
  br label %22

22:                                               ; preds = %21
  call void @llvm.lifetime.start.p0(i64 4, ptr %16) #6
  %23 = load ptr, ptr %7, align 8
  %24 = getelementptr inbounds nuw %struct.xlist, ptr %23, i32 0, i32 6
  %25 = call i32 @pthread_rwlock_wrlock(ptr noundef %24) #6
  store i32 %25, ptr %16, align 4
  %26 = load i32, ptr %16, align 4
  %27 = icmp ne i32 %26, 0
  br i1 %27, label %28, label %31

28:                                               ; preds = %22
  %29 = load i32, ptr %16, align 4
  %30 = call ptr @__errno_location() #7
  store i32 %29, ptr %30, align 4
  call void (ptr, ...) @fatal_abort(ptr noundef @.str.2, ptr noundef @__func__.list_for_each_max) #8
  unreachable

31:                                               ; preds = %22
  call void @llvm.lifetime.end.p0(i64 4, ptr %16) #6
  br label %32

32:                                               ; preds = %31
  br label %33

33:                                               ; preds = %32
  br label %47

34:                                               ; preds = %6
  br label %35

35:                                               ; preds = %34
  call void @llvm.lifetime.start.p0(i64 4, ptr %17) #6
  %36 = load ptr, ptr %7, align 8
  %37 = getelementptr inbounds nuw %struct.xlist, ptr %36, i32 0, i32 6
  %38 = call i32 @pthread_rwlock_rdlock(ptr noundef %37) #6
  store i32 %38, ptr %17, align 4
  %39 = load i32, ptr %17, align 4
  %40 = icmp ne i32 %39, 0
  br i1 %40, label %41, label %44

41:                                               ; preds = %35
  %42 = load i32, ptr %17, align 4
  %43 = call ptr @__errno_location() #7
  store i32 %42, ptr %43, align 4
  call void (ptr, ...) @fatal_abort(ptr noundef @.str.5, ptr noundef @__func__.list_for_each_max) #8
  unreachable

44:                                               ; preds = %35
  call void @llvm.lifetime.end.p0(i64 4, ptr %17) #6
  br label %45

45:                                               ; preds = %44
  br label %46

46:                                               ; preds = %45
  br label %47

47:                                               ; preds = %46, %33
  %48 = load ptr, ptr %7, align 8
  %49 = getelementptr inbounds nuw %struct.xlist, ptr %48, i32 0, i32 2
  %50 = load ptr, ptr %49, align 8
  store ptr %50, ptr %13, align 8
  br label %51

51:                                               ; preds = %81, %47
  %52 = load ptr, ptr %8, align 8
  %53 = load i32, ptr %52, align 4
  %54 = icmp eq i32 %53, -1
  br i1 %54, label %60, label %55

55:                                               ; preds = %51
  %56 = load i32, ptr %14, align 4
  %57 = load ptr, ptr %8, align 8
  %58 = load i32, ptr %57, align 4
  %59 = icmp slt i32 %56, %58
  br i1 %59, label %60, label %63

60:                                               ; preds = %55, %51
  %61 = load ptr, ptr %13, align 8
  %62 = icmp ne ptr %61, null
  br label %63

63:                                               ; preds = %60, %55
  %64 = phi i1 [ false, %55 ], [ %62, %60 ]
  br i1 %64, label %65, label %85

65:                                               ; preds = %63
  %66 = load i32, ptr %14, align 4
  %67 = add nsw i32 %66, 1
  store i32 %67, ptr %14, align 4
  %68 = load ptr, ptr %9, align 8
  %69 = load ptr, ptr %13, align 8
  %70 = getelementptr inbounds nuw %struct.listNode, ptr %69, i32 0, i32 0
  %71 = load ptr, ptr %70, align 8
  %72 = load ptr, ptr %10, align 8
  %73 = call i32 %68(ptr noundef %71, ptr noundef %72)
  %74 = icmp slt i32 %73, 0
  br i1 %74, label %75, label %80

75:                                               ; preds = %65
  store i8 1, ptr %15, align 1
  %76 = load i32, ptr %11, align 4
  %77 = icmp ne i32 %76, 0
  br i1 %77, label %78, label %79

78:                                               ; preds = %75
  br label %85

79:                                               ; preds = %75
  br label %80

80:                                               ; preds = %79, %65
  br label %81

81:                                               ; preds = %80
  %82 = load ptr, ptr %13, align 8
  %83 = getelementptr inbounds nuw %struct.listNode, ptr %82, i32 0, i32 1
  %84 = load ptr, ptr %83, align 8
  store ptr %84, ptr %13, align 8
  br label %51, !llvm.loop !20

85:                                               ; preds = %78, %63
  %86 = load ptr, ptr %7, align 8
  %87 = getelementptr inbounds nuw %struct.xlist, ptr %86, i32 0, i32 1
  %88 = load i32, ptr %87, align 4
  %89 = load i32, ptr %14, align 4
  %90 = sub nsw i32 %88, %89
  %91 = load ptr, ptr %8, align 8
  store i32 %90, ptr %91, align 4
  br label %92

92:                                               ; preds = %85
  call void @llvm.lifetime.start.p0(i64 4, ptr %18) #6
  %93 = load ptr, ptr %7, align 8
  %94 = getelementptr inbounds nuw %struct.xlist, ptr %93, i32 0, i32 6
  %95 = call i32 @pthread_rwlock_unlock(ptr noundef %94) #6
  store i32 %95, ptr %18, align 4
  %96 = load i32, ptr %18, align 4
  %97 = icmp ne i32 %96, 0
  br i1 %97, label %98, label %101

98:                                               ; preds = %92
  %99 = load i32, ptr %18, align 4
  %100 = call ptr @__errno_location() #7
  store i32 %99, ptr %100, align 4
  call void (ptr, ...) @fatal_abort(ptr noundef @.str.3, ptr noundef @__func__.list_for_each_max) #8
  unreachable

101:                                              ; preds = %92
  call void @llvm.lifetime.end.p0(i64 4, ptr %18) #6
  br label %102

102:                                              ; preds = %101
  br label %103

103:                                              ; preds = %102
  %104 = load i8, ptr %15, align 1, !range !21, !noundef !22
  %105 = trunc i8 %104 to i1
  br i1 %105, label %106, label %109

106:                                              ; preds = %103
  %107 = load i32, ptr %14, align 4
  %108 = sub nsw i32 0, %107
  store i32 %108, ptr %14, align 4
  br label %109

109:                                              ; preds = %106, %103
  %110 = load i32, ptr %14, align 4
  call void @llvm.lifetime.end.p0(i64 1, ptr %15) #6
  call void @llvm.lifetime.end.p0(i64 4, ptr %14) #6
  call void @llvm.lifetime.end.p0(i64 8, ptr %13) #6
  ret i32 %110
}