; Function Attrs: nounwind uwtable
define dso_local i32 @list_for_each_max(ptr noundef %0, ptr noundef captures(none) %1, ptr noundef readonly captures(none) %2, ptr noundef %3, i32 noundef %4, i32 noundef %5) #0 {
  %.not = icmp eq i32 %5, 0
  %7 = getelementptr inbounds nuw i8, ptr %0, i64 40
  br i1 %.not, label %12, label %8

8:                                                ; preds = %6
  %9 = tail call i32 @pthread_rwlock_wrlock(ptr noundef nonnull %7) #9
  %.not36 = icmp eq i32 %9, 0
  br i1 %.not36, label %16, label %10

10:                                               ; preds = %8
  %11 = tail call ptr @__errno_location() #10
  store i32 %9, ptr %11, align 4
  tail call void (ptr, ...) @fatal_abort(ptr noundef nonnull @.str.2, ptr noundef nonnull @__func__.list_for_each_max) #11
  unreachable

12:                                               ; preds = %6
  %13 = tail call i32 @pthread_rwlock_rdlock(ptr noundef nonnull %7) #9
  %.not35 = icmp eq i32 %13, 0
  br i1 %.not35, label %16, label %14

14:                                               ; preds = %12
  %15 = tail call ptr @__errno_location() #10
  store i32 %13, ptr %15, align 4
  tail call void (ptr, ...) @fatal_abort(ptr noundef nonnull @.str.5, ptr noundef nonnull @__func__.list_for_each_max) #11
  unreachable

16:                                               ; preds = %12, %8
  %.not37 = icmp eq i32 %4, 0
  br i1 %.not37, label %.split.us, label %.split

.split.us:                                        ; preds = %16, %23
  %.028.us = phi i1 [ %spec.select40, %23 ], [ false, %16 ]
  %.027.us = phi i32 [ %24, %23 ], [ 0, %16 ]
  %.pn.us = phi ptr [ %.0.us, %23 ], [ %0, %16 ]
  %.0.in.us = getelementptr inbounds nuw i8, ptr %.pn.us, i64 8
  %.0.us = load ptr, ptr %.0.in.us, align 8
  %17 = load i32, ptr %1, align 4
  %18 = icmp eq i32 %17, -1
  br i1 %18, label %22, label %19

19:                                               ; preds = %.split.us
  %20 = icmp slt i32 %.027.us, %17
  %21 = icmp ne ptr %.0.us, null
  %or.cond.us = select i1 %20, i1 %21, i1 false
  br i1 %or.cond.us, label %23, label %.critedge

22:                                               ; preds = %.split.us
  %.old1.not.us = icmp eq ptr %.0.us, null
  br i1 %.old1.not.us, label %.critedge, label %23

23:                                               ; preds = %22, %19
  %24 = add nuw nsw i32 %.027.us, 1
  %25 = load ptr, ptr %.0.us, align 8
  %26 = tail call i32 %2(ptr noundef %25, ptr noundef %3) #9
  %27 = icmp slt i32 %26, 0
  %spec.select40 = select i1 %27, i1 true, i1 %.028.us
  br label %.split.us, !llvm.loop !23

.split:                                           ; preds = %16, %34
  %.027 = phi i32 [ %35, %34 ], [ 0, %16 ]
  %.pn = phi ptr [ %.0, %34 ], [ %0, %16 ]
  %.0.in = getelementptr inbounds nuw i8, ptr %.pn, i64 8
  %.0 = load ptr, ptr %.0.in, align 8
  %28 = load i32, ptr %1, align 4
  %29 = icmp eq i32 %28, -1
  br i1 %29, label %33, label %30

30:                                               ; preds = %.split
  %31 = icmp slt i32 %.027, %28
  %32 = icmp ne ptr %.0, null
  %or.cond = select i1 %31, i1 %32, i1 false
  br i1 %or.cond, label %34, label %.critedge

33:                                               ; preds = %.split
  %.old1.not = icmp eq ptr %.0, null
  br i1 %.old1.not, label %.critedge, label %34

34:                                               ; preds = %30, %33
  %35 = add nuw nsw i32 %.027, 1
  %36 = load ptr, ptr %.0, align 8
  %37 = tail call i32 %2(ptr noundef %36, ptr noundef %3) #9
  %38 = icmp slt i32 %37, 0
  br i1 %38, label %.critedge, label %.split, !llvm.loop !23

.critedge:                                        ; preds = %34, %33, %30, %19, %22
  %.us-phi = phi i1 [ %.028.us, %22 ], [ %.028.us, %19 ], [ true, %34 ], [ false, %30 ], [ false, %33 ]
  %.us-phi39 = phi i32 [ %.027.us, %22 ], [ %.027.us, %19 ], [ %35, %34 ], [ %.027, %30 ], [ %.027, %33 ]
  %39 = getelementptr inbounds nuw i8, ptr %0, i64 4
  %40 = load i32, ptr %39, align 4
  %41 = sub nsw i32 %40, %.us-phi39
  store i32 %41, ptr %1, align 4
  %42 = getelementptr inbounds nuw i8, ptr %0, i64 40
  %43 = tail call i32 @pthread_rwlock_unlock(ptr noundef nonnull %42) #9
  %.not38 = icmp eq i32 %43, 0
  br i1 %.not38, label %46, label %44

44:                                               ; preds = %.critedge
  %45 = tail call ptr @__errno_location() #10
  store i32 %43, ptr %45, align 4
  tail call void (ptr, ...) @fatal_abort(ptr noundef nonnull @.str.3, ptr noundef nonnull @__func__.list_for_each_max) #11
  unreachable

46:                                               ; preds = %.critedge
  %47 = sub nsw i32 0, %.us-phi39
  %spec.select = select i1 %.us-phi, i32 %47, i32 %.us-phi39
  ret i32 %spec.select
}